; Function Attrs: mustprogress uwtable
define noundef signext i8 @ucol_equals_75(ptr noundef %source, ptr noundef %target) local_unnamed_addr #0 {
entry:
  %cmp = icmp eq ptr %source, %target
  br i1 %cmp, label %lor.end, label %lor.rhs

lor.rhs:                                          ; preds = %entry
  %vtable = load ptr, ptr %source, align 8
  %vfn = getelementptr inbounds i8, ptr %vtable, i64 24
  %0 = load ptr, ptr %vfn, align 8
  %call2 = tail call noundef zeroext i1 %0(ptr noundef nonnull align 8 dereferenceable(8) %source, ptr noundef nonnull align 8 dereferenceable(8) %target)
  %1 = zext i1 %call2 to i8
  br label %lor.end

lor.end:                                          ; preds = %lor.rhs, %entry
  %conv = phi i8 [ 1, %entry ], [ %1, %lor.rhs ]
  ret i8 %conv
}